target datalayout = "e-m:e-p270:32:32-p271:32:32-p272:64:64-i64:64-i128:128-f80:128-n8:16:32:64-S128"
target triple = "x86_64-pc-linux-gnu"

%struct.fdt_header = type { i32, i32, i32, i32, i32, i32, i32, i32, i32, i32 }
%struct.fdt_reserve_entry = type { i64, i64 }

; Function Attrs: inlinehint nounwind uwtable
define internal ptr @fdt_mem_rsv_(ptr noundef %0, i32 noundef %1) #3 {
  %3 = alloca ptr, align 8
  %4 = alloca i32, align 4
  %5 = alloca ptr, align 8
  store ptr %0, ptr %3, align 8, !tbaa !3
  store i32 %1, ptr %4, align 4, !tbaa !7
  call void @llvm.lifetime.start.p0(i64 8, ptr %5) #6
  %6 = load ptr, ptr %3, align 8, !tbaa !3
  %7 = load ptr, ptr %3, align 8, !tbaa !3
  %8 = getelementptr inbounds nuw %struct.fdt_header, ptr %7, i32 0, i32 4
  %9 = call i32 @fdt32_ld(ptr noundef %8)
  %10 = zext i32 %9 to i64
  %11 = getelementptr inbounds nuw i8, ptr %6, i64 %10
  store ptr %11, ptr %5, align 8, !tbaa !18
  %12 = load ptr, ptr %5, align 8, !tbaa !18
  %13 = load i32, ptr %4, align 4, !tbaa !7
  %14 = sext i32 %13 to i64
  %15 = getelementptr inbounds %struct.fdt_reserve_entry, ptr %12, i64 %14
  call void @llvm.lifetime.end.p0(i64 8, ptr %5) #6
  ret ptr %15
}

; Function Attrs: inlinehint nounwind uwtable
define internal i32 @fdt32_ld(ptr noundef %0) #3 {
  %2 = alloca ptr, align 8
  %3 = alloca ptr, align 8
  store ptr %0, ptr %2, align 8, !tbaa !9
  call void @llvm.lifetime.start.p0(i64 8, ptr %3) #6
  %4 = load ptr, ptr %2, align 8, !tbaa !9
  store ptr %4, ptr %3, align 8, !tbaa !13
  %5 = load ptr, ptr %3, align 8, !tbaa !13
  %6 = getelementptr inbounds i8, ptr %5, i64 0
  %7 = load i8, ptr %6, align 1, !tbaa !15
  %8 = zext i8 %7 to i32
  %9 = shl i32 %8, 24
  %10 = load ptr, ptr %3, align 8, !tbaa !13
  %11 = getelementptr inbounds i8, ptr %10, i64 1
  %12 = load i8, ptr %11, align 1, !tbaa !15
  %13 = zext i8 %12 to i32
  %14 = shl i32 %13, 16
  %15 = or i32 %9, %14
  %16 = load ptr, ptr %3, align 8, !tbaa !13
  %17 = getelementptr inbounds i8, ptr %16, i64 2
  %18 = load i8, ptr %17, align 1, !tbaa !15
  %19 = zext i8 %18 to i32
  %20 = shl i32 %19, 8
  %21 = or i32 %15, %20
  %22 = load ptr, ptr %3, align 8, !tbaa !13
  %23 = getelementptr inbounds i8, ptr %22, i64 3
  %24 = load i8, ptr %23, align 1, !tbaa !15
  %25 = zext i8 %24 to i32
  %26 = or i32 %21, %25
  call void @llvm.lifetime.end.p0(i64 8, ptr %3) #6
  ret i32 %26
}

; Function Attrs: inlinehint nounwind uwtable
define internal i64 @fdt64_ld(ptr noundef %0) #3 {
  %2 = alloca ptr, align 8
  %3 = alloca ptr, align 8
  store ptr %0, ptr %2, align 8, !tbaa !16
  call void @llvm.lifetime.start.p0(i64 8, ptr %3) #6
  %4 = load ptr, ptr %2, align 8, !tbaa !16
  store ptr %4, ptr %3, align 8, !tbaa !13
  %5 = load ptr, ptr %3, align 8, !tbaa !13
  %6 = getelementptr inbounds i8, ptr %5, i64 0
  %7 = load i8, ptr %6, align 1, !tbaa !15
  %8 = zext i8 %7 to i64
  %9 = shl i64 %8, 56
  %10 = load ptr, ptr %3, align 8, !tbaa !13
  %11 = getelementptr inbounds i8, ptr %10, i64 1
  %12 = load i8, ptr %11, align 1, !tbaa !15
  %13 = zext i8 %12 to i64
  %14 = shl i64 %13, 48
  %15 = or i64 %9, %14
  %16 = load ptr, ptr %3, align 8, !tbaa !13
  %17 = getelementptr inbounds i8, ptr %16, i64 2
  %18 = load i8, ptr %17, align 1, !tbaa !15
  %19 = zext i8 %18 to i64
  %20 = shl i64 %19, 40
  %21 = or i64 %15, %20
  %22 = load ptr, ptr %3, align 8, !tbaa !13
  %23 = getelementptr inbounds i8, ptr %22, i64 3
  %24 = load i8, ptr %23, align 1, !tbaa !15
  %25 = zext i8 %24 to i64
  %26 = shl i64 %25, 32
  %27 = or i64 %21, %26
  %28 = load ptr, ptr %3, align 8, !tbaa !13
  %29 = getelementptr inbounds i8, ptr %28, i64 4
  %30 = load i8, ptr %29, align 1, !tbaa !15
  %31 = zext i8 %30 to i64
  %32 = shl i64 %31, 24
  %33 = or i64 %27, %32
  %34 = load ptr, ptr %3, align 8, !tbaa !13
  %35 = getelementptr inbounds i8, ptr %34, i64 5
  %36 = load i8, ptr %35, align 1, !tbaa !15
  %37 = zext i8 %36 to i64
  %38 = shl i64 %37, 16
  %39 = or i64 %33, %38
  %40 = load ptr, ptr %3, align 8, !tbaa !13
  %41 = getelementptr inbounds i8, ptr %40, i64 6
  %42 = load i8, ptr %41, align 1, !tbaa !15
  %43 = zext i8 %42 to i64
  %44 = shl i64 %43, 8
  %45 = or i64 %39, %44
  %46 = load ptr, ptr %3, align 8, !tbaa !13
  %47 = getelementptr inbounds i8, ptr %46, i64 7
  %48 = load i8, ptr %47, align 1, !tbaa !15
  %49 = zext i8 %48 to i64
  %50 = or i64 %45, %49
  call void @llvm.lifetime.end.p0(i64 8, ptr %3) #6
  ret i64 %50
}

; Function Attrs: nounwind uwtable
define internal ptr @fdt_mem_rsv(ptr noundef %0, i32 noundef %1) #0 {
  %3 = alloca ptr, align 8
  %4 = alloca ptr, align 8
  %5 = alloca i32, align 4
  %6 = alloca i32, align 4
  %7 = alloca i32, align 4
  %8 = alloca i32, align 4
  store ptr %0, ptr %4, align 8, !tbaa !3
  store i32 %1, ptr %5, align 4, !tbaa !7
  call void @llvm.lifetime.start.p0(i64 4, ptr %6) #6
  %9 = load i32, ptr %5, align 4, !tbaa !7
  %10 = sext i32 %9 to i64
  %11 = mul i64 %10, 16
  %12 = trunc i64 %11 to i32
  store i32 %12, ptr %6, align 4, !tbaa !7
  call void @llvm.lifetime.start.p0(i64 4, ptr %7) #6
  %13 = load ptr, ptr %4, align 8, !tbaa !3
  %14 = getelementptr inbounds nuw %struct.fdt_header, ptr %13, i32 0, i32 4
  %15 = call i32 @fdt32_ld(ptr noundef %14)
  %16 = load i32, ptr %6, align 4, !tbaa !7
  %17 = add i32 %15, %16
  store i32 %17, ptr %7, align 4, !tbaa !7
  %18 = load i32, ptr %7, align 4, !tbaa !7
  %19 = load ptr, ptr %4, align 8, !tbaa !3
  %20 = getelementptr inbounds nuw %struct.fdt_header, ptr %19, i32 0, i32 4
  %21 = call i32 @fdt32_ld(ptr noundef %20)
  %22 = icmp ult i32 %18, %21
  br i1 %22, label %23, label %24

23:                                               ; preds = %2
  store ptr null, ptr %3, align 8
  store i32 1, ptr %8, align 4
  br label %38

24:                                               ; preds = %2
  %25 = load i32, ptr %7, align 4, !tbaa !7
  %26 = sext i32 %25 to i64
  %27 = load ptr, ptr %4, align 8, !tbaa !3
  %28 = getelementptr inbounds nuw %struct.fdt_header, ptr %27, i32 0, i32 1
  %29 = call i32 @fdt32_ld(ptr noundef %28)
  %30 = zext i32 %29 to i64
  %31 = sub i64 %30, 16
  %32 = icmp ugt i64 %26, %31
  br i1 %32, label %33, label %34

33:                                               ; preds = %24
  store ptr null, ptr %3, align 8
  store i32 1, ptr %8, align 4
  br label %38

34:                                               ; preds = %24
  %35 = load ptr, ptr %4, align 8, !tbaa !3
  %36 = load i32, ptr %5, align 4, !tbaa !7
  %37 = call ptr @fdt_mem_rsv_(ptr noundef %35, i32 noundef %36)
  store ptr %37, ptr %3, align 8
  store i32 1, ptr %8, align 4
  br label %38

38:                                               ; preds = %34, %33, %23
  call void @llvm.lifetime.end.p0(i64 4, ptr %7) #6
  call void @llvm.lifetime.end.p0(i64 4, ptr %6) #6
  %39 = load ptr, ptr %3, align 8
  ret ptr %39
}

; Function Attrs: nounwind uwtable
define i32 @fdt_get_mem_rsv(ptr noundef %0, i32 noundef %1, ptr noundef %2, ptr noundef %3) #0 {
  %5 = alloca i32, align 4
  %6 = alloca ptr, align 8
  %7 = alloca i32, align 4
  %8 = alloca ptr, align 8
  %9 = alloca ptr, align 8
  %10 = alloca ptr, align 8
  %11 = alloca i32, align 4
  %12 = alloca i32, align 4
  store ptr %0, ptr %6, align 8, !tbaa !3
  store i32 %1, ptr %7, align 4, !tbaa !7
  store ptr %2, ptr %8, align 8, !tbaa !16
  store ptr %3, ptr %9, align 8, !tbaa !16
  call void @llvm.lifetime.start.p0(i64 8, ptr %10) #6
  call void @llvm.lifetime.start.p0(i64 4, ptr %11) #6
  %13 = load ptr, ptr %6, align 8, !tbaa !3
  %14 = call i32 @fdt_ro_probe_(ptr noundef %13)
  store i32 %14, ptr %11, align 4, !tbaa !7
  %15 = icmp slt i32 %14, 0
  br i1 %15, label %16, label %18

16:                                               ; preds = %4
  %17 = load i32, ptr %11, align 4, !tbaa !7
  store i32 %17, ptr %5, align 4
  store i32 1, ptr %12, align 4
  br label %19

18:                                               ; preds = %4
  store i32 0, ptr %12, align 4
  br label %19

19:                                               ; preds = %18, %16
  call void @llvm.lifetime.end.p0(i64 4, ptr %11) #6
  %20 = load i32, ptr %12, align 4
  switch i32 %20, label %37 [
    i32 0, label %21
  ]

21:                                               ; preds = %19
  %22 = load ptr, ptr %6, align 8, !tbaa !3
  %23 = load i32, ptr %7, align 4, !tbaa !7
  %24 = call ptr @fdt_mem_rsv(ptr noundef %22, i32 noundef %23)
  store ptr %24, ptr %10, align 8, !tbaa !18
  %25 = load ptr, ptr %10, align 8, !tbaa !18
  %26 = icmp ne ptr %25, null
  br i1 %26, label %28, label %27

27:                                               ; preds = %21
  store i32 -4, ptr %5, align 4
  store i32 1, ptr %12, align 4
  br label %37

28:                                               ; preds = %21
  %29 = load ptr, ptr %10, align 8, !tbaa !18
  %30 = getelementptr inbounds nuw %struct.fdt_reserve_entry, ptr %29, i32 0, i32 0
  %31 = call i64 @fdt64_ld(ptr noundef %30)
  %32 = load ptr, ptr %8, align 8, !tbaa !16
  store i64 %31, ptr %32, align 8, !tbaa !11
  %33 = load ptr, ptr %10, align 8, !tbaa !18
  %34 = getelementptr inbounds nuw %struct.fdt_reserve_entry, ptr %33, i32 0, i32 1
  %35 = call i64 @fdt64_ld(ptr noundef %34)
  %36 = load ptr, ptr %9, align 8, !tbaa !16
  store i64 %35, ptr %36, align 8, !tbaa !11
  store i32 0, ptr %5, align 4
  store i32 1, ptr %12, align 4
  br label %37

37:                                               ; preds = %28, %27, %19
  call void @llvm.lifetime.end.p0(i64 8, ptr %10) #6
  %38 = load i32, ptr %5, align 4
  ret i32 %38
}