; Function Attrs: nounwind uwtable
define range(i32 -2147483648, 1) i32 @fdt_get_mem_rsv(ptr noundef %0, i32 noundef %1, ptr noundef writeonly captures(none) %2, ptr noundef writeonly captures(none) %3) local_unnamed_addr #0 {
  %5 = tail call i32 @fdt_ro_probe_(ptr noundef %0) #9
  %6 = icmp sgt i32 %5, -1
  br i1 %6, label %7, label %fdt_mem_rsv.exit.thread

7:                                                ; preds = %4
  %8 = shl i32 %1, 4
  %9 = getelementptr inbounds nuw i8, ptr %0, i64 16
  %10 = load i8, ptr %9, align 1, !tbaa !3
  %11 = zext i8 %10 to i32
  %12 = shl nuw i32 %11, 24
  %13 = getelementptr inbounds nuw i8, ptr %0, i64 17
  %14 = load i8, ptr %13, align 1, !tbaa !3
  %15 = zext i8 %14 to i32
  %16 = shl nuw nsw i32 %15, 16
  %17 = or disjoint i32 %16, %12
  %18 = getelementptr inbounds nuw i8, ptr %0, i64 18
  %19 = load i8, ptr %18, align 1, !tbaa !3
  %20 = zext i8 %19 to i32
  %21 = shl nuw nsw i32 %20, 8
  %22 = or disjoint i32 %17, %21
  %23 = getelementptr inbounds nuw i8, ptr %0, i64 19
  %24 = load i8, ptr %23, align 1, !tbaa !3
  %25 = zext i8 %24 to i32
  %26 = or disjoint i32 %22, %25
  %27 = add i32 %26, %8
  %28 = icmp ult i32 %27, %26
  br i1 %28, label %fdt_mem_rsv.exit.thread, label %29

29:                                               ; preds = %7
  %30 = sext i32 %27 to i64
  %31 = getelementptr inbounds nuw i8, ptr %0, i64 4
  %32 = load i8, ptr %31, align 1, !tbaa !3
  %33 = zext i8 %32 to i64
  %34 = shl nuw nsw i64 %33, 24
  %35 = getelementptr inbounds nuw i8, ptr %0, i64 5
  %36 = load i8, ptr %35, align 1, !tbaa !3
  %37 = zext i8 %36 to i64
  %38 = shl nuw nsw i64 %37, 16
  %39 = or disjoint i64 %38, %34
  %40 = getelementptr inbounds nuw i8, ptr %0, i64 6
  %41 = load i8, ptr %40, align 1, !tbaa !3
  %42 = zext i8 %41 to i64
  %43 = shl nuw nsw i64 %42, 8
  %44 = or disjoint i64 %39, %43
  %45 = getelementptr inbounds nuw i8, ptr %0, i64 7
  %46 = load i8, ptr %45, align 1, !tbaa !3
  %47 = zext i8 %46 to i64
  %48 = or disjoint i64 %44, %47
  %49 = add nsw i64 %48, -16
  %50 = icmp ult i64 %49, %30
  br i1 %50, label %fdt_mem_rsv.exit.thread, label %51

51:                                               ; preds = %29
  %52 = zext i8 %14 to i64
  %53 = shl nuw nsw i64 %52, 16
  %54 = zext i8 %10 to i64
  %55 = shl nuw nsw i64 %54, 24
  %56 = or disjoint i64 %53, %55
  %57 = zext i8 %19 to i64
  %58 = shl nuw nsw i64 %57, 8
  %59 = or disjoint i64 %56, %58
  %60 = zext i8 %24 to i64
  %61 = or disjoint i64 %59, %60
  %62 = getelementptr inbounds nuw i8, ptr %0, i64 %61
  %63 = sext i32 %1 to i64
  %64 = getelementptr inbounds %struct.fdt_reserve_entry, ptr %62, i64 %63
  %65 = load i8, ptr %64, align 1, !tbaa !3
  %66 = zext i8 %65 to i64
  %67 = shl nuw i64 %66, 56
  %68 = getelementptr inbounds nuw i8, ptr %64, i64 1
  %69 = load i8, ptr %68, align 1, !tbaa !3
  %70 = zext i8 %69 to i64
  %71 = shl nuw nsw i64 %70, 48
  %72 = or disjoint i64 %71, %67
  %73 = getelementptr inbounds nuw i8, ptr %64, i64 2
  %74 = load i8, ptr %73, align 1, !tbaa !3
  %75 = zext i8 %74 to i64
  %76 = shl nuw nsw i64 %75, 40
  %77 = or disjoint i64 %72, %76
  %78 = getelementptr inbounds nuw i8, ptr %64, i64 3
  %79 = load i8, ptr %78, align 1, !tbaa !3
  %80 = zext i8 %79 to i64
  %81 = shl nuw nsw i64 %80, 32
  %82 = or disjoint i64 %77, %81
  %83 = getelementptr inbounds nuw i8, ptr %64, i64 4
  %84 = load i8, ptr %83, align 1, !tbaa !3
  %85 = zext i8 %84 to i64
  %86 = shl nuw nsw i64 %85, 24
  %87 = or disjoint i64 %82, %86
  %88 = getelementptr inbounds nuw i8, ptr %64, i64 5
  %89 = load i8, ptr %88, align 1, !tbaa !3
  %90 = zext i8 %89 to i64
  %91 = shl nuw nsw i64 %90, 16
  %92 = or disjoint i64 %87, %91
  %93 = getelementptr inbounds nuw i8, ptr %64, i64 6
  %94 = load i8, ptr %93, align 1, !tbaa !3
  %95 = zext i8 %94 to i64
  %96 = shl nuw nsw i64 %95, 8
  %97 = or i64 %92, %96
  %98 = getelementptr inbounds nuw i8, ptr %64, i64 7
  %99 = load i8, ptr %98, align 1, !tbaa !3
  %100 = zext i8 %99 to i64
  %101 = or i64 %97, %100
  store i64 %101, ptr %2, align 8, !tbaa !8
  %102 = getelementptr inbounds nuw i8, ptr %64, i64 8
  %103 = load i8, ptr %102, align 1, !tbaa !3
  %104 = zext i8 %103 to i64
  %105 = shl nuw i64 %104, 56
  %106 = getelementptr inbounds nuw i8, ptr %64, i64 9
  %107 = load i8, ptr %106, align 1, !tbaa !3
  %108 = zext i8 %107 to i64
  %109 = shl nuw nsw i64 %108, 48
  %110 = or disjoint i64 %109, %105
  %111 = getelementptr inbounds nuw i8, ptr %64, i64 10
  %112 = load i8, ptr %111, align 1, !tbaa !3
  %113 = zext i8 %112 to i64
  %114 = shl nuw nsw i64 %113, 40
  %115 = or disjoint i64 %110, %114
  %116 = getelementptr inbounds nuw i8, ptr %64, i64 11
  %117 = load i8, ptr %116, align 1, !tbaa !3
  %118 = zext i8 %117 to i64
  %119 = shl nuw nsw i64 %118, 32
  %120 = or disjoint i64 %115, %119
  %121 = getelementptr inbounds nuw i8, ptr %64, i64 12
  %122 = load i8, ptr %121, align 1, !tbaa !3
  %123 = zext i8 %122 to i64
  %124 = shl nuw nsw i64 %123, 24
  %125 = or disjoint i64 %120, %124
  %126 = getelementptr inbounds nuw i8, ptr %64, i64 13
  %127 = load i8, ptr %126, align 1, !tbaa !3
  %128 = zext i8 %127 to i64
  %129 = shl nuw nsw i64 %128, 16
  %130 = or disjoint i64 %125, %129
  %131 = getelementptr inbounds nuw i8, ptr %64, i64 14
  %132 = load i8, ptr %131, align 1, !tbaa !3
  %133 = zext i8 %132 to i64
  %134 = shl nuw nsw i64 %133, 8
  %135 = or i64 %130, %134
  %136 = getelementptr inbounds nuw i8, ptr %64, i64 15
  %137 = load i8, ptr %136, align 1, !tbaa !3
  %138 = zext i8 %137 to i64
  %139 = or i64 %135, %138
  store i64 %139, ptr %3, align 8, !tbaa !8
  br label %fdt_mem_rsv.exit.thread

fdt_mem_rsv.exit.thread:                          ; preds = %29, %7, %4, %51
  %.1 = phi i32 [ 0, %51 ], [ %5, %4 ], [ -4, %7 ], [ -4, %29 ]
  ret i32 %.1
}